target datalayout = "e-m:e-p270:32:32-p271:32:32-p272:64:64-i64:64-i128:128-f80:128-n8:16:32:64-S128"
target triple = "x86_64-pc-linux-gnu"

%"struct.duckdb_hll::robj" = type { ptr }
%"struct.duckdb_hll::hllhdr" = type { [4 x i8], i8, [3 x i8], [8 x i8], [1 x i8] }

; Function Attrs: mustprogress nounwind uwtable
define noundef zeroext i8 @_ZN10duckdb_hll12get_registerEPNS_4robjEm(ptr noundef %0, i64 noundef %1) #0 {
  %3 = alloca ptr, align 8
  %4 = alloca i64, align 8
  %5 = alloca ptr, align 8
  %6 = alloca i8, align 1
  %7 = alloca ptr, align 8
  %8 = alloca i64, align 8
  %9 = alloca i64, align 8
  %10 = alloca i64, align 8
  %11 = alloca i64, align 8
  %12 = alloca i64, align 8
  store ptr %0, ptr %3, align 8, !tbaa !22
  store i64 %1, ptr %4, align 8, !tbaa !9
  call void @llvm.lifetime.start.p0(i64 8, ptr %5) #10
  %13 = load ptr, ptr %3, align 8, !tbaa !22
  %14 = getelementptr inbounds nuw %"struct.duckdb_hll::robj", ptr %13, i32 0, i32 0
  %15 = load ptr, ptr %14, align 8, !tbaa !24
  store ptr %15, ptr %5, align 8, !tbaa !26
  call void @llvm.lifetime.start.p0(i64 1, ptr %6) #10
  br label %16

16:                                               ; preds = %2
  call void @llvm.lifetime.start.p0(i64 8, ptr %7) #10
  %17 = load ptr, ptr %5, align 8, !tbaa !26
  %18 = getelementptr inbounds nuw %"struct.duckdb_hll::hllhdr", ptr %17, i32 0, i32 4
  %19 = getelementptr inbounds [1 x i8], ptr %18, i64 0, i64 0
  %20 = getelementptr inbounds i8, ptr %19, i64 1
  store ptr %20, ptr %7, align 8, !tbaa !11
  call void @llvm.lifetime.start.p0(i64 8, ptr %8) #10
  %21 = load i64, ptr %4, align 8, !tbaa !9
  %22 = mul i64 %21, 6
  %23 = udiv i64 %22, 8
  store i64 %23, ptr %8, align 8, !tbaa !9
  call void @llvm.lifetime.start.p0(i64 8, ptr %9) #10
  %24 = load i64, ptr %4, align 8, !tbaa !9
  %25 = mul i64 %24, 6
  %26 = and i64 %25, 7
  store i64 %26, ptr %9, align 8, !tbaa !9
  call void @llvm.lifetime.start.p0(i64 8, ptr %10) #10
  %27 = load i64, ptr %9, align 8, !tbaa !9
  %28 = sub i64 8, %27
  store i64 %28, ptr %10, align 8, !tbaa !9
  call void @llvm.lifetime.start.p0(i64 8, ptr %11) #10
  %29 = load ptr, ptr %7, align 8, !tbaa !11
  %30 = load i64, ptr %8, align 8, !tbaa !9
  %31 = getelementptr inbounds nuw i8, ptr %29, i64 %30
  %32 = load i8, ptr %31, align 1, !tbaa !15
  %33 = zext i8 %32 to i64
  store i64 %33, ptr %11, align 8, !tbaa !9
  call void @llvm.lifetime.start.p0(i64 8, ptr %12) #10
  %34 = load ptr, ptr %7, align 8, !tbaa !11
  %35 = load i64, ptr %8, align 8, !tbaa !9
  %36 = add i64 %35, 1
  %37 = getelementptr inbounds nuw i8, ptr %34, i64 %36
  %38 = load i8, ptr %37, align 1, !tbaa !15
  %39 = zext i8 %38 to i64
  store i64 %39, ptr %12, align 8, !tbaa !9
  %40 = load i64, ptr %11, align 8, !tbaa !9
  %41 = load i64, ptr %9, align 8, !tbaa !9
  %42 = lshr i64 %40, %41
  %43 = load i64, ptr %12, align 8, !tbaa !9
  %44 = load i64, ptr %10, align 8, !tbaa !9
  %45 = shl i64 %43, %44
  %46 = or i64 %42, %45
  %47 = and i64 %46, 63
  %48 = trunc i64 %47 to i8
  store i8 %48, ptr %6, align 1, !tbaa !15
  call void @llvm.lifetime.end.p0(i64 8, ptr %12) #10
  call void @llvm.lifetime.end.p0(i64 8, ptr %11) #10
  call void @llvm.lifetime.end.p0(i64 8, ptr %10) #10
  call void @llvm.lifetime.end.p0(i64 8, ptr %9) #10
  call void @llvm.lifetime.end.p0(i64 8, ptr %8) #10
  call void @llvm.lifetime.end.p0(i64 8, ptr %7) #10
  br label %49

49:                                               ; preds = %16
  br label %50

50:                                               ; preds = %49
  %51 = load i8, ptr %6, align 1, !tbaa !15
  call void @llvm.lifetime.end.p0(i64 1, ptr %6) #10
  call void @llvm.lifetime.end.p0(i64 8, ptr %5) #10
  ret i8 %51
}