; Function Attrs: mustprogress nofree norecurse nosync nounwind willreturn memory(read, inaccessiblemem: none) uwtable
define noundef zeroext range(i8 0, 64) i8 @_ZN10duckdb_hll12get_registerEPNS_4robjEm(ptr noundef readonly captures(none) %0, i64 noundef %1) local_unnamed_addr #18 {
  %3 = load ptr, ptr %0, align 8, !tbaa !14
  %4 = getelementptr inbounds nuw i8, ptr %3, i64 17
  %5 = mul i64 %1, 6
  %6 = lshr i64 %5, 3
  %7 = getelementptr inbounds nuw i8, ptr %4, i64 %6
  %8 = load i8, ptr %7, align 1, !tbaa !9
  %9 = getelementptr inbounds nuw i8, ptr %7, i64 1
  %10 = load i8, ptr %9, align 1, !tbaa !9
  %11 = trunc i64 %5 to i8
  %12 = tail call i8 @llvm.fshr.i8(i8 %10, i8 %8, i8 %11)
  %13 = and i8 %12, 63
  ret i8 %13
}